# SPDX-FileCopyrightText: 2025 Julian Scheffers <julian@scheffers.net>
# SPDX-FileType: SOURCE
# SPDX-License-Identifier: MIT



    .cfi_sections .debug_frame



    # RISC-V interrupt vector table.
    # This must be aligned to a 256-byte boundary, so it is in a special section.
    .section ".interrupt_vector_table", "ax", @progbits
    .global riscv_vector_table
    .type riscv_vector_table, %function
riscv_vector_table:
    .option push
    .option norvc
    .rept 32
    j riscv_exception_asm
    .endr
    .option pop
    .size riscv_vector_table, .-riscv_vector_table



    # Assembly trampoline for entering the kernel from an exception.
    #
    # cpulocal+0  => stack to use (or NULL to use current)
    # cpulocal+8  => temporary storage of SP
    # cpulocal+16 => temporary storage of T0
    # cpulocal+24 => temporary storage of T1
    #
    # T0 => pointer to cpulocal data struct (struct CpuLocal)
    # T1 => Scratch register used to save old value of other regs
    #
    # Entry: Jumped to directly by the CPU as the trap/interrupt vector.
    .section ".text.riscv_exception_asm", "ax", @progbits
    .global riscv_exception_asm
    .type riscv_exception_asm, %function
    .align 2
    .cfi_startproc
    .option push
    # Linker relaxation is not possible due to entering from untrusted code,
    # which controls the GP register.
    .option norelax
riscv_exception_asm:
    .cfi_return_column 64
    .cfi_signal_frame
    # Get the cpulocal ptr.
    csrrw t0, sscratch, t0
    # Normal save of T1.
    sd t1, 24(t0)
    # Restore sscratch to be cpulocal ptr again.
    csrrw t1, sscratch, t0
    # T1 used to save old value of T0.
    sd t1, 16(t0)
    # Get the interrupt stack.
    sd sp, 8(t0)
    ld sp, 0(t0)
    # Use old stack ptr if supplied is null (i.e. in kernel ctx).
    bnez sp, 1f
    ld sp, 8(t0)
1:
    .cfi_remember_state
    
    # Save context to the stack.
    addi sp, sp, -256
    .cfi_def_cfa sp, 0
    csrr t1, sepc
    sd t1,   0*8(sp) # PC
    .cfi_rel_offset 64, 0*8
    sd ra,   1*8(sp)
    .cfi_rel_offset ra, 1*8
    ld t1,     8(t0)
    sd t1,   2*8(sp) # SP
    .cfi_rel_offset sp, 2*8
    sd gp,   3*8(sp)
    .cfi_rel_offset gp, 3*8
    sd tp,   4*8(sp)
    .cfi_rel_offset tp, 4*8
    ld t1,    16(t0)
    sd t1,   5*8(sp) # T0
    .cfi_rel_offset t0, 5*8
    ld t1,    24(t0)
    sd t1,   6*8(sp) # T1
    .cfi_rel_offset t1, 6*8
    sd t2,   7*8(sp)
    .cfi_rel_offset t2, 7*8
    sd s0,   8*8(sp)
    .cfi_rel_offset s0, 8*8
    sd s1,   9*8(sp)
    .cfi_rel_offset s1, 9*8
    sd a0,  10*8(sp)
    .cfi_rel_offset a0, 10*8
    sd a1,  11*8(sp)
    .cfi_rel_offset a1, 11*8
    sd a2,  12*8(sp)
    .cfi_rel_offset a2, 12*8
    sd a3,  13*8(sp)
    .cfi_rel_offset a3, 13*8
    sd a4,  14*8(sp)
    .cfi_rel_offset a4, 14*8
    sd a5,  15*8(sp)
    .cfi_rel_offset a5, 15*8
    sd a6,  16*8(sp)
    .cfi_rel_offset a6, 16*8
    sd a7,  17*8(sp)
    .cfi_rel_offset a7, 17*8
    sd s2,  18*8(sp)
    .cfi_rel_offset s2, 18*8
    sd s3,  19*8(sp)
    .cfi_rel_offset s3, 19*8
    sd s4,  20*8(sp)
    .cfi_rel_offset s4, 20*8
    sd s5,  21*8(sp)
    .cfi_rel_offset s5, 21*8
    sd s6,  22*8(sp)
    .cfi_rel_offset s6, 22*8
    sd s7,  23*8(sp)
    .cfi_rel_offset s7, 23*8
    sd s8,  24*8(sp)
    .cfi_rel_offset s8, 24*8
    sd s9,  25*8(sp)
    .cfi_rel_offset s9, 25*8
    sd s10, 26*8(sp)
    .cfi_rel_offset s10, 26*8
    sd s11, 27*8(sp)
    .cfi_rel_offset s11, 27*8
    sd t3,  28*8(sp)
    .cfi_rel_offset t3, 28*8
    sd t4,  29*8(sp)
    .cfi_rel_offset t4, 29*8
    sd t5,  30*8(sp)
    .cfi_rel_offset t5, 30*8
    sd t6,  31*8(sp)
    .cfi_rel_offset t6, 31*8
    addi sp, sp, -32
    .cfi_adjust_cfa_offset 48
    csrr t1, sstatus
    sd   t1, 0(sp)
    csrr t1, scause
    sd   t1, 8(sp)
    csrr t1, stval
    sd   t1, 16(sp)
    
    # Create a fake stack frame for kernel unwinding.
    addi sp, sp, -16
    .cfi_adjust_cfa_offset 16
    csrr t1, sepc
    sd   t1, 8(sp) # PC
    sd   s0, 0(sp) # FP
    addi s0, sp, 16
    sd   s0, 16+24(sp)
    
    # Call C-ABI exception handler.
    la gp, __global_pointer$
    addi a0, sp, 16
    jal  riscv_exception_handler
    csrr t0, sscratch
    
    # Delete fake unwind frame.
    addi sp, sp, 16
    
    # Restore context from the stack.
    ld t1,   0(sp)
    csrw sstatus, t1
    addi sp, sp, 32
    ld t1,   0*8(sp) # PC
    csrw sepc, t1
    ld ra,   1*8(sp)
    ld t1,   2*8(sp) # SP
    sd t1,     8(t0)
    ld gp,   3*8(sp)
    ld tp,   4*8(sp)
    ld t1,   5*8(sp) # T0
    sd t1,    16(t0)
    ld t1,   6*8(sp) # T1
    sd t1,    24(t0)
    ld t2,   7*8(sp)
    ld s0,   8*8(sp)
    ld s1,   9*8(sp)
    ld a0,  10*8(sp)
    ld a1,  11*8(sp)
    ld a2,  12*8(sp)
    ld a3,  13*8(sp)
    ld a4,  14*8(sp)
    ld a5,  15*8(sp)
    ld a6,  16*8(sp)
    ld a7,  17*8(sp)
    ld s2,  18*8(sp)
    ld s3,  19*8(sp)
    ld s4,  20*8(sp)
    ld s5,  21*8(sp)
    ld s6,  22*8(sp)
    ld s7,  23*8(sp)
    ld s8,  24*8(sp)
    ld s9,  25*8(sp)
    ld s10, 26*8(sp)
    ld s11, 27*8(sp)
    ld t3,  28*8(sp)
    ld t4,  29*8(sp)
    ld t5,  30*8(sp)
    ld t6,  31*8(sp)
    addi sp, sp, 256
    .cfi_restore_state
    
    # Restore the last regs.
    ld sp, 8(t0)
    ld t1, 24(t0)
    ld t0, 16(t0)
    
    # All done, return from exception handler.
    sret
    .option pop
    .cfi_endproc
    .size riscv_exception_asm, .-riscv_exception_asm
